target datalayout = "e-m:e-p270:32:32-p271:32:32-p272:64:64-i64:64-i128:128-f80:128-n8:16:32:64-S128"
target triple = "x86_64-pc-linux-gnu"

%class.mpff_manager = type <{ i32, i32, %class.svector, i32, i8, [3 x i8], %class.id_gen, [4 x %class.svector], %class.svector, %class.mpff, [8 x i8] }>
%class.id_gen = type { i32, %class.svector }
%class.svector = type { %class.vector }
%class.vector = type { ptr }
%class.mpff = type { i32, i32 }

; Function Attrs: mustprogress nounwind uwtable
define linkonce_odr hidden noundef ptr @_ZNK6vectorIjLb0EjE4dataEv(ptr noundef nonnull align 8 dereferenceable(8) %0) #5 comdat align 2 {
  %2 = alloca ptr, align 8
  store ptr %0, ptr %2, align 8, !tbaa !32
  %3 = load ptr, ptr %2, align 8
  %4 = getelementptr inbounds nuw %class.vector, ptr %3, i32 0, i32 0
  %5 = load ptr, ptr %4, align 8, !tbaa !35
  ret ptr %5
}

; Function Attrs: mustprogress uwtable
define linkonce_odr hidden noundef ptr @_ZNK12mpff_manager3sigERK4mpff(ptr noundef nonnull align 8 dereferenceable(89) %0, ptr noundef nonnull align 4 dereferenceable(8) %1) #4 comdat align 2 {
  %3 = alloca ptr, align 8
  %4 = alloca ptr, align 8
  store ptr %0, ptr %3, align 8, !tbaa !3
  store ptr %1, ptr %4, align 8, !tbaa !29
  %5 = load ptr, ptr %3, align 8
  %6 = getelementptr inbounds nuw %class.mpff_manager, ptr %5, i32 0, i32 2
  %7 = call noundef ptr @_ZNK6vectorIjLb0EjE4dataEv(ptr noundef nonnull align 8 dereferenceable(8) %6)
  %8 = load ptr, ptr %4, align 8, !tbaa !29
  %9 = load i32, ptr %8, align 4
  %10 = lshr i32 %9, 1
  %11 = getelementptr inbounds nuw %class.mpff_manager, ptr %5, i32 0, i32 0
  %12 = load i32, ptr %11, align 8, !tbaa !10
  %13 = mul i32 %10, %12
  %14 = zext i32 %13 to i64
  %15 = getelementptr inbounds nuw i32, ptr %7, i64 %14
  ret ptr %15
}

; Function Attrs: mustprogress nounwind uwtable
define linkonce_odr hidden noundef zeroext i1 @_ZN12mpff_manager6is_negERK4mpff(ptr noundef nonnull align 4 dereferenceable(8) %0) #5 comdat align 2 {
  %2 = alloca ptr, align 8
  store ptr %0, ptr %2, align 8, !tbaa !29
  %3 = load ptr, ptr %2, align 8, !tbaa !29
  %4 = load i32, ptr %3, align 4
  %5 = and i32 %4, 1
  %6 = icmp ne i32 %5, 0
  ret i1 %6
}

; Function Attrs: mustprogress uwtable
define hidden noundef zeroext i1 @_ZNK12mpff_manager6is_twoERK4mpff(ptr noundef nonnull align 8 dereferenceable(89) %0, ptr noundef nonnull align 4 dereferenceable(8) %1) #4 align 2 {
  %3 = alloca i1, align 1
  %4 = alloca ptr, align 8
  %5 = alloca ptr, align 8
  %6 = alloca ptr, align 8
  %7 = alloca i32, align 4
  %8 = alloca i32, align 4
  store ptr %0, ptr %4, align 8, !tbaa !3
  store ptr %1, ptr %5, align 8, !tbaa !29
  %9 = load ptr, ptr %4, align 8
  %10 = load ptr, ptr %5, align 8, !tbaa !29
  %11 = call noundef zeroext i1 @_ZN12mpff_manager6is_negERK4mpff(ptr noundef nonnull align 4 dereferenceable(8) %10)
  br i1 %11, label %12, label %13

12:                                               ; preds = %2
  store i1 false, ptr %3, align 1
  br label %58

13:                                               ; preds = %2
  %14 = load ptr, ptr %5, align 8, !tbaa !29
  %15 = getelementptr inbounds nuw %class.mpff, ptr %14, i32 0, i32 1
  %16 = load i32, ptr %15, align 4, !tbaa !31
  %17 = getelementptr inbounds nuw %class.mpff_manager, ptr %9, i32 0, i32 1
  %18 = load i32, ptr %17, align 4, !tbaa !19
  %19 = sub nsw i32 2, %18
  %20 = icmp ne i32 %16, %19
  br i1 %20, label %21, label %22

21:                                               ; preds = %13
  store i1 false, ptr %3, align 1
  br label %58

22:                                               ; preds = %13
  call void @llvm.lifetime.start.p0(i64 8, ptr %6) #3
  %23 = load ptr, ptr %5, align 8, !tbaa !29
  %24 = call noundef ptr @_ZNK12mpff_manager3sigERK4mpff(ptr noundef nonnull align 8 dereferenceable(89) %9, ptr noundef nonnull align 4 dereferenceable(8) %23)
  store ptr %24, ptr %6, align 8, !tbaa !36
  %25 = load ptr, ptr %6, align 8, !tbaa !36
  %26 = getelementptr inbounds nuw %class.mpff_manager, ptr %9, i32 0, i32 0
  %27 = load i32, ptr %26, align 8, !tbaa !10
  %28 = sub i32 %27, 1
  %29 = zext i32 %28 to i64
  %30 = getelementptr inbounds nuw i32, ptr %25, i64 %29
  %31 = load i32, ptr %30, align 4, !tbaa !8
  %32 = icmp ne i32 %31, -2147483648
  br i1 %32, label %33, label %34

33:                                               ; preds = %22
  store i1 false, ptr %3, align 1
  store i32 1, ptr %7, align 4
  br label %57

34:                                               ; preds = %22
  call void @llvm.lifetime.start.p0(i64 4, ptr %8) #3
  store i32 0, ptr %8, align 4, !tbaa !8
  br label %35

35:                                               ; preds = %51, %34
  %36 = load i32, ptr %8, align 4, !tbaa !8
  %37 = getelementptr inbounds nuw %class.mpff_manager, ptr %9, i32 0, i32 0
  %38 = load i32, ptr %37, align 8, !tbaa !10
  %39 = sub i32 %38, 1
  %40 = icmp ult i32 %36, %39
  br i1 %40, label %42, label %41

41:                                               ; preds = %35
  store i32 2, ptr %7, align 4
  br label %54

42:                                               ; preds = %35
  %43 = load ptr, ptr %6, align 8, !tbaa !36
  %44 = load i32, ptr %8, align 4, !tbaa !8
  %45 = zext i32 %44 to i64
  %46 = getelementptr inbounds nuw i32, ptr %43, i64 %45
  %47 = load i32, ptr %46, align 4, !tbaa !8
  %48 = icmp ne i32 %47, 0
  br i1 %48, label %49, label %50

49:                                               ; preds = %42
  store i1 false, ptr %3, align 1
  store i32 1, ptr %7, align 4
  br label %54

50:                                               ; preds = %42
  br label %51

51:                                               ; preds = %50
  %52 = load i32, ptr %8, align 4, !tbaa !8
  %53 = add i32 %52, 1
  store i32 %53, ptr %8, align 4, !tbaa !8
  br label %35, !llvm.loop !48

54:                                               ; preds = %49, %41
  call void @llvm.lifetime.end.p0(i64 4, ptr %8) #3
  %55 = load i32, ptr %7, align 4
  switch i32 %55, label %57 [
    i32 2, label %56
  ]

56:                                               ; preds = %54
  store i1 true, ptr %3, align 1
  store i32 1, ptr %7, align 4
  br label %57

57:                                               ; preds = %56, %54, %33
  call void @llvm.lifetime.end.p0(i64 8, ptr %6) #3
  br label %58

58:                                               ; preds = %57, %21, %12
  %59 = load i1, ptr %3, align 1
  ret i1 %59
}