; Function Attrs: mustprogress nofree norecurse nosync nounwind willreturn memory(read, inaccessiblemem: none) uwtable
define hidden noundef zeroext i1 @_ZNK12mpff_manager6is_twoERK4mpff(ptr noundef nonnull readonly align 8 captures(none) dereferenceable(89) %0, ptr noundef nonnull readonly align 4 captures(none) dereferenceable(8) %1) local_unnamed_addr #10 align 2 {
  %3 = load i32, ptr %1, align 4
  %4 = and i32 %3, 1
  %.not15 = icmp eq i32 %4, 0
  br i1 %.not15, label %5, label %.loopexit

5:                                                ; preds = %2
  %6 = getelementptr inbounds nuw i8, ptr %1, i64 4
  %7 = load i32, ptr %6, align 4, !tbaa !35
  %8 = getelementptr inbounds nuw i8, ptr %0, i64 4
  %9 = load i32, ptr %8, align 4, !tbaa !18
  %10 = sub nsw i32 2, %9
  %.not = icmp eq i32 %7, %10
  br i1 %.not, label %11, label %.loopexit

11:                                               ; preds = %5
  %12 = getelementptr inbounds nuw i8, ptr %0, i64 8
  %13 = load ptr, ptr %12, align 8, !tbaa !3
  %14 = lshr exact i32 %3, 1
  %15 = load i32, ptr %0, align 8, !tbaa !13
  %16 = mul i32 %15, %14
  %17 = zext i32 %16 to i64
  %18 = getelementptr inbounds nuw i32, ptr %13, i64 %17
  %19 = add i32 %15, -1
  %20 = zext i32 %19 to i64
  %21 = getelementptr inbounds nuw i32, ptr %18, i64 %20
  %22 = load i32, ptr %21, align 4, !tbaa !21
  %.not12 = icmp eq i32 %22, -2147483648
  br i1 %.not12, label %.preheader, label %.loopexit

.preheader:                                       ; preds = %11
  %.not1416 = icmp eq i32 %19, 0
  br i1 %.not1416, label %.loopexit, label %.lr.ph

.lr.ph:                                           ; preds = %.preheader, %.lr.ph
  %indvars.iv = phi i64 [ %indvars.iv.next, %.lr.ph ], [ 0, %.preheader ]
  %23 = getelementptr inbounds nuw i32, ptr %18, i64 %indvars.iv
  %24 = load i32, ptr %23, align 4, !tbaa !21
  %.not13 = icmp eq i32 %24, 0
  %indvars.iv.next = add nuw nsw i64 %indvars.iv, 1
  %exitcond.not = icmp ne i64 %indvars.iv.next, %20
  %or.cond.not = select i1 %.not13, i1 %exitcond.not, i1 false
  br i1 %or.cond.not, label %.lr.ph, label %.loopexit, !llvm.loop !44

.loopexit:                                        ; preds = %.lr.ph, %.preheader, %11, %5, %2
  %.011 = phi i1 [ false, %2 ], [ false, %5 ], [ false, %11 ], [ true, %.preheader ], [ %.not13, %.lr.ph ]
  ret i1 %.011
}